; Function Attrs: null_pointer_is_valid sspstrong uwtable
define ptr @proto_tree_add_cbor_int64(ptr noundef %0, i32 noundef %1, ptr noundef %2, ptr noundef %3, ptr noundef readonly captures(none) %4, ptr noundef readonly captures(address_is_null) %5) local_unnamed_addr #0 {
  %7 = alloca %struct.wscbor_expert_add_t, align 8
  %8 = getelementptr inbounds nuw i8, ptr %4, i64 8
  %9 = load i32, ptr %8, align 8
  %10 = getelementptr inbounds nuw i8, ptr %4, i64 12
  %11 = load i32, ptr %10, align 4
  %.not = icmp eq ptr %5, null
  br i1 %.not, label %14, label %12

12:                                               ; preds = %6
  %13 = load i64, ptr %5, align 8
  br label %14

14:                                               ; preds = %6, %12
  %15 = phi i64 [ %13, %12 ], [ 0, %6 ]
  %16 = tail call ptr @proto_tree_add_int64(ptr noundef %0, i32 noundef %1, ptr noundef %3, i32 noundef %9, i32 noundef %11, i64 noundef %15)
  call void @llvm.lifetime.start.p0(i64 16, ptr nonnull %7) #9
  store ptr %2, ptr %7, align 8
  %17 = getelementptr inbounds nuw i8, ptr %7, i64 8
  store ptr %16, ptr %17, align 8
  %18 = getelementptr inbounds nuw i8, ptr %4, i64 24
  %19 = load ptr, ptr %18, align 8
  call void @wmem_list_foreach(ptr noundef %19, ptr noundef nonnull @wscbor_expert_add, ptr noundef nonnull %7)
  %20 = load ptr, ptr %4, align 8
  %21 = getelementptr inbounds nuw i8, ptr %20, i64 8
  %22 = load ptr, ptr %21, align 8
  call void @wmem_list_foreach(ptr noundef %22, ptr noundef nonnull @wscbor_expert_add, ptr noundef nonnull %7)
  %23 = load ptr, ptr %18, align 8
  %24 = call i32 @wmem_list_count(ptr noundef %23)
  call void @llvm.lifetime.end.p0(i64 16, ptr nonnull %7) #9
  ret ptr %16
}